target datalayout = "e-m:e-p270:32:32-p271:32:32-p272:64:64-i64:64-i128:128-f80:128-n8:16:32:64-S128"
target triple = "x86_64-pc-linux-gnu"

%"struct.cv::AsyncArray::Impl" = type <{ i32, i32, i32, [4 x i8], %"class.std::mutex", %"class.std::condition_variable", i8, [7 x i8], %"struct.cv::Ptr", %"struct.cv::Ptr.0", i8, [7 x i8], %"class.std::__exception_ptr::exception_ptr", %"class.cv::Exception", i8, i8, [6 x i8] }>
%"class.std::mutex" = type { %"class.std::__mutex_base" }
%"class.std::__mutex_base" = type { %union.pthread_mutex_t }
%union.pthread_mutex_t = type { %struct.__pthread_mutex_s }
%struct.__pthread_mutex_s = type { i32, i32, i32, i32, i32, i16, i16, %struct.__pthread_internal_list }
%struct.__pthread_internal_list = type { ptr, ptr }
%"class.std::condition_variable" = type { %"class.std::__condvar" }
%"class.std::__condvar" = type { %union.pthread_cond_t }
%union.pthread_cond_t = type { %struct.__pthread_cond_s }
%struct.__pthread_cond_s = type { %union.__atomic_wide_counter, %union.__atomic_wide_counter, [2 x i32], [2 x i32], i32, i32, [2 x i32] }
%union.__atomic_wide_counter = type { i64 }
%"struct.cv::Ptr" = type { %"class.std::shared_ptr" }
%"class.std::shared_ptr" = type { %"class.std::__shared_ptr" }
%"class.std::__shared_ptr" = type { ptr, %"class.std::__shared_count" }
%"class.std::__shared_count" = type { ptr }
%"struct.cv::Ptr.0" = type { %"class.std::shared_ptr.1" }
%"class.std::shared_ptr.1" = type { %"class.std::__shared_ptr.2" }
%"class.std::__shared_ptr.2" = type { ptr, %"class.std::__shared_count" }
%"class.std::__exception_ptr::exception_ptr" = type { ptr }
%"class.cv::Exception" = type <{ %"class.std::exception", %"class.std::__cxx11::basic_string", i32, [4 x i8], %"class.std::__cxx11::basic_string", %"class.std::__cxx11::basic_string", %"class.std::__cxx11::basic_string", i32, [4 x i8] }>
%"class.std::exception" = type { ptr }
%"class.std::__cxx11::basic_string" = type { %"struct.std::__cxx11::basic_string<char>::_Alloc_hider", i64, %union.anon }
%"struct.std::__cxx11::basic_string<char>::_Alloc_hider" = type { ptr }
%union.anon = type { i64, [8 x i8] }
%"class.cv::AsyncPromise" = type { ptr }

; Function Attrs: mustprogress nounwind uwtable
define linkonce_odr hidden void @_ZN2cv10AsyncArray4Impl14releasePromiseEv(ptr noundef nonnull align 8 dereferenceable(314) %0) #4 comdat align 2 {
  %2 = alloca ptr, align 8
  %3 = alloca i32, align 4
  %4 = alloca i32, align 4
  %5 = alloca i32, align 4
  %6 = alloca i32, align 4
  store ptr %0, ptr %2, align 8, !tbaa !11
  %7 = load ptr, ptr %2, align 8
  %8 = getelementptr inbounds nuw %"struct.cv::AsyncArray::Impl", ptr %7, i32 0, i32 2
  store i32 -1, ptr %3, align 4, !tbaa !12
  %9 = load i32, ptr %3, align 4
  %10 = atomicrmw add ptr %8, i32 %9 acq_rel, align 8
  store i32 %10, ptr %4, align 4
  %11 = getelementptr inbounds nuw %"struct.cv::AsyncArray::Impl", ptr %7, i32 0, i32 0
  store i32 -1, ptr %5, align 4, !tbaa !12
  %12 = load i32, ptr %5, align 4
  %13 = atomicrmw add ptr %11, i32 %12 acq_rel, align 8
  store i32 %13, ptr %6, align 4
  %14 = load i32, ptr %6, align 4, !tbaa !12
  %15 = icmp eq i32 1, %14
  br i1 %15, label %16, label %20

16:                                               ; preds = %1
  %17 = icmp eq ptr %7, null
  br i1 %17, label %19, label %18

18:                                               ; preds = %16
  call void @_ZN2cv10AsyncArray4ImplD2Ev(ptr noundef nonnull align 8 dereferenceable(314) %7) #3
  call void @_ZdlPv(ptr noundef %7) #20
  br label %19

19:                                               ; preds = %18, %16
  br label %20

20:                                               ; preds = %19, %1
  ret void
}

; Function Attrs: mustprogress nounwind uwtable
define void @_ZN2cv12AsyncPromise7releaseEv(ptr noundef nonnull align 8 dereferenceable(8) %0) #4 align 2 {
  %2 = alloca ptr, align 8
  %3 = alloca ptr, align 8
  store ptr %0, ptr %2, align 8, !tbaa !64
  %4 = load ptr, ptr %2, align 8
  call void @llvm.lifetime.start.p0(i64 8, ptr %3) #3
  %5 = getelementptr inbounds nuw %"class.cv::AsyncPromise", ptr %4, i32 0, i32 0
  %6 = load ptr, ptr %5, align 8, !tbaa !66
  store ptr %6, ptr %3, align 8, !tbaa !11
  %7 = getelementptr inbounds nuw %"class.cv::AsyncPromise", ptr %4, i32 0, i32 0
  store ptr null, ptr %7, align 8, !tbaa !66
  %8 = load ptr, ptr %3, align 8, !tbaa !11
  %9 = icmp ne ptr %8, null
  br i1 %9, label %10, label %12

10:                                               ; preds = %1
  %11 = load ptr, ptr %3, align 8, !tbaa !11
  call void @_ZN2cv10AsyncArray4Impl14releasePromiseEv(ptr noundef nonnull align 8 dereferenceable(314) %11) #3
  br label %12

12:                                               ; preds = %10, %1
  call void @llvm.lifetime.end.p0(i64 8, ptr %3) #3
  ret void
}

; Function Attrs: mustprogress nounwind uwtable
define linkonce_odr hidden void @_ZN2cv10AsyncArray4Impl13addrefPromiseEv(ptr noundef nonnull align 8 dereferenceable(314) %0) #4 comdat align 2 {
  %2 = alloca ptr, align 8
  %3 = alloca i32, align 4
  %4 = alloca i32, align 4
  %5 = alloca i32, align 4
  %6 = alloca i32, align 4
  store ptr %0, ptr %2, align 8, !tbaa !11
  %7 = load ptr, ptr %2, align 8
  %8 = getelementptr inbounds nuw %"struct.cv::AsyncArray::Impl", ptr %7, i32 0, i32 2
  store i32 1, ptr %3, align 4, !tbaa !12
  %9 = load i32, ptr %3, align 4
  %10 = atomicrmw add ptr %8, i32 %9 acq_rel, align 8
  store i32 %10, ptr %4, align 4
  %11 = getelementptr inbounds nuw %"struct.cv::AsyncArray::Impl", ptr %7, i32 0, i32 0
  store i32 1, ptr %5, align 4, !tbaa !12
  %12 = load i32, ptr %5, align 4
  %13 = atomicrmw add ptr %11, i32 %12 acq_rel, align 8
  store i32 %13, ptr %6, align 4
  ret void
}

; Function Attrs: mustprogress nounwind uwtable
define noundef nonnull align 8 dereferenceable(8) ptr @_ZN2cv12AsyncPromiseaSERKS0_(ptr noundef nonnull align 8 dereferenceable(8) %0, ptr noundef nonnull align 8 dereferenceable(8) %1) #4 align 2 {
  %3 = alloca ptr, align 8
  %4 = alloca ptr, align 8
  %5 = alloca ptr, align 8
  store ptr %0, ptr %3, align 8, !tbaa !64
  store ptr %1, ptr %4, align 8, !tbaa !64
  %6 = load ptr, ptr %3, align 8
  call void @llvm.lifetime.start.p0(i64 8, ptr %5) #3
  %7 = load ptr, ptr %4, align 8, !tbaa !64
  %8 = getelementptr inbounds nuw %"class.cv::AsyncPromise", ptr %7, i32 0, i32 0
  %9 = load ptr, ptr %8, align 8, !tbaa !66
  store ptr %9, ptr %5, align 8, !tbaa !11
  %10 = load ptr, ptr %5, align 8, !tbaa !11
  %11 = icmp ne ptr %10, null
  br i1 %11, label %12, label %14

12:                                               ; preds = %2
  %13 = load ptr, ptr %5, align 8, !tbaa !11
  call void @_ZN2cv10AsyncArray4Impl13addrefPromiseEv(ptr noundef nonnull align 8 dereferenceable(314) %13) #3
  br label %14

14:                                               ; preds = %12, %2
  call void @_ZN2cv12AsyncPromise7releaseEv(ptr noundef nonnull align 8 dereferenceable(8) %6) #3
  %15 = load ptr, ptr %5, align 8, !tbaa !11
  %16 = getelementptr inbounds nuw %"class.cv::AsyncPromise", ptr %6, i32 0, i32 0
  store ptr %15, ptr %16, align 8, !tbaa !66
  call void @llvm.lifetime.end.p0(i64 8, ptr %5) #3
  ret ptr %6
}